; Function Attrs: mustprogress nofree norecurse nosync nounwind willreturn memory(write, argmem: readwrite, inaccessiblemem: none) uwtable
define dso_local void @_ZN4llvm9DbgRecord12insertBeforeEPS0_(ptr noundef nonnull align 8 dereferenceable(33) %0, ptr noundef %1) local_unnamed_addr #6 align 2 {
  %3 = getelementptr inbounds nuw i8, ptr %1, i64 16
  %4 = load ptr, ptr %3, align 8
  %5 = load ptr, ptr %1, align 8
  %6 = getelementptr inbounds nuw i8, ptr %0, i64 8
  store ptr %1, ptr %6, align 8
  store ptr %5, ptr %0, align 8
  %7 = getelementptr inbounds nuw i8, ptr %5, i64 8
  store ptr %0, ptr %7, align 8
  store ptr %0, ptr %1, align 8
  %8 = getelementptr inbounds nuw i8, ptr %0, i64 16
  store ptr %4, ptr %8, align 8
  ret void
}